target datalayout = "e-m:e-p270:32:32-p271:32:32-p272:64:64-i64:64-i128:128-f80:128-n8:16:32:64-S128"
target triple = "x86_64-pc-linux-gnu"

%struct.reassembly_table = type { ptr, ptr, ptr, ptr, ptr }
%struct.reassembly_table_functions = type { ptr, ptr, ptr, ptr, ptr, ptr }

@.str.5 = private unnamed_addr constant [12 x i8] c"btl2cap.cid\00", align 1
@.str.26 = private unnamed_addr constant [12 x i8] c"btl2cap.psm\00", align 1
@proto_register_btl2cap.ett = internal global [8 x ptr] [ptr @ett_btl2cap, ptr @ett_btl2cap_cmd, ptr @ett_btl2cap_option, ptr @ett_btl2cap_extfeatures, ptr @ett_btl2cap_fixedchans, ptr @ett_btl2cap_control, ptr @ett_btl2cap_le_sdu_fragment, ptr @ett_btl2cap_le_sdu_fragments], align 16
@.str.263 = private unnamed_addr constant [8 x i8] c"btl2cap\00", align 1
@.str.264 = private unnamed_addr constant [25 x i8] c"Bluetooth L2CAP Protocol\00", align 1
@.str.265 = private unnamed_addr constant [9 x i8] c"BT L2CAP\00", align 1
@proto_btl2cap = hidden global i32 0, align 4
@.str.266 = private unnamed_addr constant [13 x i8] c"BT L2CAP PSM\00", align 1
@l2cap_psm_dissector_table = internal global ptr null, align 8
@.str.267 = private unnamed_addr constant [13 x i8] c"BT L2CAP CID\00", align 1
@l2cap_cid_dissector_table = internal global ptr null, align 8
@cmd_ident_to_psm_table = internal global ptr null, align 8
@cid_to_psm_table = internal global ptr null, align 8
@btl2cap_le_sdu_reassembly_table = internal global %struct.reassembly_table zeroinitializer, align 8
@addresses_reassembly_table_functions = external constant %struct.reassembly_table_functions, align 8

; Function Attrs: null_pointer_is_valid sspstrong uwtable
define hidden void @proto_register_btl2cap() #1 {
  %1 = alloca ptr, align 8
  call void @llvm.lifetime.start.p0(i64 8, ptr %1) #9
  %2 = call i32 @proto_register_protocol(ptr noundef @.str.264, ptr noundef @.str.265, ptr noundef @.str.263)
  store i32 %2, ptr @proto_btl2cap, align 4
  %3 = load i32, ptr @proto_btl2cap, align 4
  %4 = call ptr @register_dissector(ptr noundef @.str.263, ptr noundef @dissect_btl2cap, i32 noundef %3)
  %5 = load i32, ptr @proto_btl2cap, align 4
  %6 = call ptr @register_dissector_table(ptr noundef @.str.26, ptr noundef @.str.266, i32 noundef %5, i32 noundef 5, i32 noundef 2)
  store ptr %6, ptr @l2cap_psm_dissector_table, align 8
  %7 = load i32, ptr @proto_btl2cap, align 4
  %8 = call ptr @register_dissector_table(ptr noundef @.str.5, ptr noundef @.str.267, i32 noundef %7, i32 noundef 5, i32 noundef 2)
  store ptr %8, ptr @l2cap_cid_dissector_table, align 8
  %9 = load i32, ptr @proto_btl2cap, align 4
  call void @proto_register_field_array(i32 noundef %9, ptr noundef @proto_register_btl2cap.hf, i32 noundef 106)
  call void @proto_register_subtree_array(ptr noundef @proto_register_btl2cap.ett, i32 noundef 8)
  %10 = load i32, ptr @proto_btl2cap, align 4
  %11 = call ptr @expert_register_protocol(i32 noundef %10)
  store ptr %11, ptr %1, align 8
  %12 = load ptr, ptr %1, align 8
  call void @expert_register_field_array(ptr noundef %12, ptr noundef @proto_register_btl2cap.ei, i32 noundef 4)
  %13 = call ptr @wmem_epan_scope()
  %14 = call ptr @wmem_file_scope()
  %15 = call noalias ptr @wmem_tree_new_autoreset(ptr noundef %13, ptr noundef %14)
  store ptr %15, ptr @cmd_ident_to_psm_table, align 8
  %16 = call ptr @wmem_epan_scope()
  %17 = call ptr @wmem_file_scope()
  %18 = call noalias ptr @wmem_tree_new_autoreset(ptr noundef %16, ptr noundef %17)
  store ptr %18, ptr @cid_to_psm_table, align 8
  call void @register_decode_as(ptr noundef @proto_register_btl2cap.btl2cap_cid_da)
  call void @register_decode_as(ptr noundef @proto_register_btl2cap.btl2cap_psm_da)
  call void @reassembly_table_register(ptr noundef @btl2cap_le_sdu_reassembly_table, ptr noundef @addresses_reassembly_table_functions)
  call void @llvm.lifetime.end.p0(i64 8, ptr %1) #9
  ret void
}