; Function Attrs: null_pointer_is_valid sspstrong uwtable
define hidden void @proto_register_btl2cap() local_unnamed_addr #1 {
  %1 = tail call i32 @proto_register_protocol(ptr noundef nonnull @.str.264, ptr noundef nonnull @.str.265, ptr noundef nonnull @.str.263)
  store i32 %1, ptr @proto_btl2cap, align 4
  %2 = tail call ptr @register_dissector(ptr noundef nonnull @.str.263, ptr noundef nonnull @dissect_btl2cap, i32 noundef %1)
  %3 = load i32, ptr @proto_btl2cap, align 4
  %4 = tail call ptr @register_dissector_table(ptr noundef nonnull @.str.26, ptr noundef nonnull @.str.266, i32 noundef %3, i32 noundef 5, i32 noundef 2)
  store ptr %4, ptr @l2cap_psm_dissector_table, align 8
  %5 = load i32, ptr @proto_btl2cap, align 4
  %6 = tail call ptr @register_dissector_table(ptr noundef nonnull @.str.5, ptr noundef nonnull @.str.267, i32 noundef %5, i32 noundef 5, i32 noundef 2)
  store ptr %6, ptr @l2cap_cid_dissector_table, align 8
  %7 = load i32, ptr @proto_btl2cap, align 4
  tail call void @proto_register_field_array(i32 noundef %7, ptr noundef nonnull @proto_register_btl2cap.hf, i32 noundef 106)
  tail call void @proto_register_subtree_array(ptr noundef nonnull @proto_register_btl2cap.ett, i32 noundef 8)
  %8 = load i32, ptr @proto_btl2cap, align 4
  %9 = tail call ptr @expert_register_protocol(i32 noundef %8)
  tail call void @expert_register_field_array(ptr noundef %9, ptr noundef nonnull @proto_register_btl2cap.ei, i32 noundef 4)
  %10 = tail call ptr @wmem_epan_scope()
  %11 = tail call ptr @wmem_file_scope()
  %12 = tail call noalias ptr @wmem_tree_new_autoreset(ptr noundef %10, ptr noundef %11)
  store ptr %12, ptr @cmd_ident_to_psm_table, align 8
  %13 = tail call ptr @wmem_epan_scope()
  %14 = tail call ptr @wmem_file_scope()
  %15 = tail call noalias ptr @wmem_tree_new_autoreset(ptr noundef %13, ptr noundef %14)
  store ptr %15, ptr @cid_to_psm_table, align 8
  tail call void @register_decode_as(ptr noundef nonnull @proto_register_btl2cap.btl2cap_cid_da)
  tail call void @register_decode_as(ptr noundef nonnull @proto_register_btl2cap.btl2cap_psm_da)
  tail call void @reassembly_table_register(ptr noundef nonnull @btl2cap_le_sdu_reassembly_table, ptr noundef nonnull @addresses_reassembly_table_functions)
  ret void
}